target datalayout = "e-m:e-p270:32:32-p271:32:32-p272:64:64-i64:64-i128:128-f80:128-n8:16:32:64-S128"
target triple = "x86_64-pc-linux-gnu"

%"class.std::__cxx11::basic_string" = type { %"struct.std::__cxx11::basic_string<char>::_Alloc_hider", i64, %union.anon }
%"struct.std::__cxx11::basic_string<char>::_Alloc_hider" = type { ptr }
%union.anon = type { i64, [8 x i8] }
%"class.std::allocator.0" = type { i8 }
%"class.cv::Mat" = type { i32, i32, i32, i32, ptr, ptr, ptr, ptr, ptr, ptr, %"struct.cv::MatSize", %"struct.cv::MatStep" }
%"struct.cv::MatSize" = type { ptr }
%"struct.cv::MatStep" = type { ptr, [2 x i64] }
%"class.__gnu_cxx::__normal_iterator" = type { ptr }
%"struct.std::_Vector_base" = type { %"struct.std::_Vector_base<cv::Mat, std::allocator<cv::Mat>>::_Vector_impl" }
%"struct.std::_Vector_base<cv::Mat, std::allocator<cv::Mat>>::_Vector_impl" = type { %"struct.std::_Vector_base<cv::Mat, std::allocator<cv::Mat>>::_Vector_impl_data" }
%"struct.std::_Vector_base<cv::Mat, std::allocator<cv::Mat>>::_Vector_impl_data" = type { ptr, ptr, ptr }

@.str = private unnamed_addr constant [16 x i8] c"!images.empty()\00", align 1
@__func__._ZN2cv20checkImageDimensionsERKSt6vectorINS_3MatESaIS1_EE = private unnamed_addr constant [21 x i8] c"checkImageDimensions\00", align 1
@.str.1 = private unnamed_addr constant [124 x i8] c"generated/home/dtcxzyw/WorkSpace/Projects/compilers/llvm-opt-benchmark/bench/opencv/opencv/modules/photo/src/hdr_common.cpp\00", align 1
@.str.2 = private unnamed_addr constant [52 x i8] c"images[i].cols == width && images[i].rows == height\00", align 1
@.str.3 = private unnamed_addr constant [25 x i8] c"images[i].type() == type\00", align 1

; Function Attrs: mustprogress nounwind uwtable
define linkonce_odr hidden noundef nonnull align 8 dereferenceable(8) ptr @_ZNK9__gnu_cxx17__normal_iteratorIPKN2cv3MatESt6vectorIS2_SaIS2_EEE4baseEv(ptr noundef nonnull align 8 dereferenceable(8) %0) #1 comdat align 2 {
  %2 = alloca ptr, align 8
  store ptr %0, ptr %2, align 8
  %3 = load ptr, ptr %2, align 8
  %4 = getelementptr inbounds %"class.__gnu_cxx::__normal_iterator", ptr %3, i32 0, i32 0
  ret ptr %4
}

; Function Attrs: mustprogress nounwind uwtable
define linkonce_odr hidden void @_ZN9__gnu_cxx17__normal_iteratorIPKN2cv3MatESt6vectorIS2_SaIS2_EEEC2ERKS4_(ptr noundef nonnull align 8 dereferenceable(8) %0, ptr noundef nonnull align 8 dereferenceable(8) %1) unnamed_addr #1 comdat align 2 {
  %3 = alloca ptr, align 8
  %4 = alloca ptr, align 8
  store ptr %0, ptr %3, align 8
  store ptr %1, ptr %4, align 8
  %5 = load ptr, ptr %3, align 8
  %6 = getelementptr inbounds %"class.__gnu_cxx::__normal_iterator", ptr %5, i32 0, i32 0
  %7 = load ptr, ptr %4, align 8
  %8 = load ptr, ptr %7, align 8
  store ptr %8, ptr %6, align 8
  ret void
}

; Function Attrs: mustprogress nounwind uwtable
define linkonce_odr noundef zeroext i1 @_ZN9__gnu_cxxeqIPKN2cv3MatESt6vectorIS2_SaIS2_EEEEbRKNS_17__normal_iteratorIT_T0_EESD_(ptr noundef nonnull align 8 dereferenceable(8) %0, ptr noundef nonnull align 8 dereferenceable(8) %1) #1 comdat {
  %3 = alloca ptr, align 8
  %4 = alloca ptr, align 8
  store ptr %0, ptr %3, align 8
  store ptr %1, ptr %4, align 8
  %5 = load ptr, ptr %3, align 8
  %6 = call noundef nonnull align 8 dereferenceable(8) ptr @_ZNK9__gnu_cxx17__normal_iteratorIPKN2cv3MatESt6vectorIS2_SaIS2_EEE4baseEv(ptr noundef nonnull align 8 dereferenceable(8) %5) #11
  %7 = load ptr, ptr %6, align 8
  %8 = load ptr, ptr %4, align 8
  %9 = call noundef nonnull align 8 dereferenceable(8) ptr @_ZNK9__gnu_cxx17__normal_iteratorIPKN2cv3MatESt6vectorIS2_SaIS2_EEE4baseEv(ptr noundef nonnull align 8 dereferenceable(8) %8) #11
  %10 = load ptr, ptr %9, align 8
  %11 = icmp eq ptr %7, %10
  ret i1 %11
}

; Function Attrs: mustprogress nounwind uwtable
define linkonce_odr hidden ptr @_ZNKSt6vectorIN2cv3MatESaIS1_EE3endEv(ptr noundef nonnull align 8 dereferenceable(24) %0) #1 comdat align 2 {
  %2 = alloca %"class.__gnu_cxx::__normal_iterator", align 8
  %3 = alloca ptr, align 8
  store ptr %0, ptr %3, align 8
  %4 = load ptr, ptr %3, align 8
  %5 = getelementptr inbounds %"struct.std::_Vector_base", ptr %4, i32 0, i32 0
  %6 = getelementptr inbounds %"struct.std::_Vector_base<cv::Mat, std::allocator<cv::Mat>>::_Vector_impl_data", ptr %5, i32 0, i32 1
  call void @_ZN9__gnu_cxx17__normal_iteratorIPKN2cv3MatESt6vectorIS2_SaIS2_EEEC2ERKS4_(ptr noundef nonnull align 8 dereferenceable(8) %2, ptr noundef nonnull align 8 dereferenceable(8) %6) #11
  %7 = getelementptr inbounds %"class.__gnu_cxx::__normal_iterator", ptr %2, i32 0, i32 0
  %8 = load ptr, ptr %7, align 8
  ret ptr %8
}

; Function Attrs: mustprogress nounwind uwtable
define linkonce_odr hidden ptr @_ZNKSt6vectorIN2cv3MatESaIS1_EE5beginEv(ptr noundef nonnull align 8 dereferenceable(24) %0) #1 comdat align 2 {
  %2 = alloca %"class.__gnu_cxx::__normal_iterator", align 8
  %3 = alloca ptr, align 8
  store ptr %0, ptr %3, align 8
  %4 = load ptr, ptr %3, align 8
  %5 = getelementptr inbounds %"struct.std::_Vector_base", ptr %4, i32 0, i32 0
  %6 = getelementptr inbounds %"struct.std::_Vector_base<cv::Mat, std::allocator<cv::Mat>>::_Vector_impl_data", ptr %5, i32 0, i32 0
  call void @_ZN9__gnu_cxx17__normal_iteratorIPKN2cv3MatESt6vectorIS2_SaIS2_EEEC2ERKS4_(ptr noundef nonnull align 8 dereferenceable(8) %2, ptr noundef nonnull align 8 dereferenceable(8) %6) #11
  %7 = getelementptr inbounds %"class.__gnu_cxx::__normal_iterator", ptr %2, i32 0, i32 0
  %8 = load ptr, ptr %7, align 8
  ret ptr %8
}

; Function Attrs: mustprogress nounwind uwtable
define linkonce_odr hidden noundef i64 @_ZNKSt6vectorIN2cv3MatESaIS1_EE4sizeEv(ptr noundef nonnull align 8 dereferenceable(24) %0) #1 comdat align 2 {
  %2 = alloca ptr, align 8
  store ptr %0, ptr %2, align 8
  %3 = load ptr, ptr %2, align 8
  %4 = getelementptr inbounds %"struct.std::_Vector_base", ptr %3, i32 0, i32 0
  %5 = getelementptr inbounds %"struct.std::_Vector_base<cv::Mat, std::allocator<cv::Mat>>::_Vector_impl_data", ptr %4, i32 0, i32 1
  %6 = load ptr, ptr %5, align 8
  %7 = getelementptr inbounds %"struct.std::_Vector_base", ptr %3, i32 0, i32 0
  %8 = getelementptr inbounds %"struct.std::_Vector_base<cv::Mat, std::allocator<cv::Mat>>::_Vector_impl_data", ptr %7, i32 0, i32 0
  %9 = load ptr, ptr %8, align 8
  %10 = ptrtoint ptr %6 to i64
  %11 = ptrtoint ptr %9 to i64
  %12 = sub i64 %10, %11
  %13 = sdiv exact i64 %12, 96
  ret i64 %13
}

; Function Attrs: mustprogress nounwind uwtable
define linkonce_odr hidden noundef i32 @_ZNK2cv3Mat4typeEv(ptr noundef nonnull align 8 dereferenceable(96) %0) #1 comdat align 2 {
  %2 = alloca ptr, align 8
  store ptr %0, ptr %2, align 8
  %3 = load ptr, ptr %2, align 8
  %4 = getelementptr inbounds %"class.cv::Mat", ptr %3, i32 0, i32 0
  %5 = load i32, ptr %4, align 8
  %6 = and i32 %5, 4095
  ret i32 %6
}

; Function Attrs: mustprogress nounwind uwtable
define linkonce_odr hidden noundef nonnull align 8 dereferenceable(96) ptr @_ZNKSt6vectorIN2cv3MatESaIS1_EEixEm(ptr noundef nonnull align 8 dereferenceable(24) %0, i64 noundef %1) #1 comdat align 2 {
  %3 = alloca ptr, align 8
  %4 = alloca i64, align 8
  store ptr %0, ptr %3, align 8
  store i64 %1, ptr %4, align 8
  %5 = load ptr, ptr %3, align 8
  %6 = getelementptr inbounds %"struct.std::_Vector_base", ptr %5, i32 0, i32 0
  %7 = getelementptr inbounds %"struct.std::_Vector_base<cv::Mat, std::allocator<cv::Mat>>::_Vector_impl_data", ptr %6, i32 0, i32 0
  %8 = load ptr, ptr %7, align 8
  %9 = load i64, ptr %4, align 8
  %10 = getelementptr inbounds %"class.cv::Mat", ptr %8, i64 %9
  ret ptr %10
}

; Function Attrs: mustprogress nounwind uwtable
define linkonce_odr hidden noundef zeroext i1 @_ZNKSt6vectorIN2cv3MatESaIS1_EE5emptyEv(ptr noundef nonnull align 8 dereferenceable(24) %0) #1 comdat align 2 {
  %2 = alloca ptr, align 8
  %3 = alloca %"class.__gnu_cxx::__normal_iterator", align 8
  %4 = alloca %"class.__gnu_cxx::__normal_iterator", align 8
  store ptr %0, ptr %2, align 8
  %5 = load ptr, ptr %2, align 8
  %6 = call ptr @_ZNKSt6vectorIN2cv3MatESaIS1_EE5beginEv(ptr noundef nonnull align 8 dereferenceable(24) %5) #11
  %7 = getelementptr inbounds %"class.__gnu_cxx::__normal_iterator", ptr %3, i32 0, i32 0
  store ptr %6, ptr %7, align 8
  %8 = call ptr @_ZNKSt6vectorIN2cv3MatESaIS1_EE3endEv(ptr noundef nonnull align 8 dereferenceable(24) %5) #11
  %9 = getelementptr inbounds %"class.__gnu_cxx::__normal_iterator", ptr %4, i32 0, i32 0
  store ptr %8, ptr %9, align 8
  %10 = call noundef zeroext i1 @_ZN9__gnu_cxxeqIPKN2cv3MatESt6vectorIS2_SaIS2_EEEEbRKNS_17__normal_iteratorIT_T0_EESD_(ptr noundef nonnull align 8 dereferenceable(8) %3, ptr noundef nonnull align 8 dereferenceable(8) %4) #11
  ret i1 %10
}

; Function Attrs: mustprogress uwtable
define hidden void @_ZN2cv20checkImageDimensionsERKSt6vectorINS_3MatESaIS1_EE(ptr noundef nonnull align 8 dereferenceable(24) %0) #0 personality ptr @__gxx_personality_v0 {
  %2 = alloca ptr, align 8
  %3 = alloca %"class.std::__cxx11::basic_string", align 8
  %4 = alloca %"class.std::allocator.0", align 1
  %5 = alloca ptr, align 8
  %6 = alloca i32, align 4
  %7 = alloca i32, align 4
  %8 = alloca i32, align 4
  %9 = alloca i32, align 4
  %10 = alloca i64, align 8
  %11 = alloca %"class.std::__cxx11::basic_string", align 8
  %12 = alloca %"class.std::allocator.0", align 1
  %13 = alloca %"class.std::__cxx11::basic_string", align 8
  %14 = alloca %"class.std::allocator.0", align 1
  store ptr %0, ptr %2, align 8
  br label %15

15:                                               ; preds = %1
  %16 = load ptr, ptr %2, align 8
  %17 = call noundef zeroext i1 @_ZNKSt6vectorIN2cv3MatESaIS1_EE5emptyEv(ptr noundef nonnull align 8 dereferenceable(24) %16) #11
  br i1 %17, label %19, label %18

18:                                               ; preds = %15
  br label %31

19:                                               ; preds = %15
  call void @_ZNSaIcEC1Ev(ptr noundef nonnull align 1 dereferenceable(1) %4) #11
  invoke void @_ZNSt7__cxx1112basic_stringIcSt11char_traitsIcESaIcEEC1EPKcRKS3_(ptr noundef nonnull align 8 dereferenceable(32) %3, ptr noundef @.str, ptr noundef nonnull align 1 dereferenceable(1) %4)
          to label %20 unwind label %22

20:                                               ; preds = %19
  invoke void @_ZN2cv5errorEiRKNSt7__cxx1112basic_stringIcSt11char_traitsIcESaIcEEEPKcS9_i(i32 noundef -215, ptr noundef nonnull align 8 dereferenceable(32) %3, ptr noundef @__func__._ZN2cv20checkImageDimensionsERKSt6vectorINS_3MatESaIS1_EE, ptr noundef @.str.1, i32 noundef 51) #12
          to label %21 unwind label %26

21:                                               ; preds = %20
  unreachable

22:                                               ; preds = %19
  %23 = landingpad { ptr, i32 }
          cleanup
  %24 = extractvalue { ptr, i32 } %23, 0
  store ptr %24, ptr %5, align 8
  %25 = extractvalue { ptr, i32 } %23, 1
  store i32 %25, ptr %6, align 4
  br label %30

26:                                               ; preds = %20
  %27 = landingpad { ptr, i32 }
          cleanup
  %28 = extractvalue { ptr, i32 } %27, 0
  store ptr %28, ptr %5, align 8
  %29 = extractvalue { ptr, i32 } %27, 1
  store i32 %29, ptr %6, align 4
  call void @_ZNSt7__cxx1112basic_stringIcSt11char_traitsIcESaIcEED1Ev(ptr noundef nonnull align 8 dereferenceable(32) %3) #11
  br label %30

30:                                               ; preds = %26, %22
  call void @_ZNSaIcED1Ev(ptr noundef nonnull align 1 dereferenceable(1) %4) #11
  br label %107

31:                                               ; preds = %18
  br label %32

32:                                               ; preds = %31
  %33 = load ptr, ptr %2, align 8
  %34 = call noundef nonnull align 8 dereferenceable(96) ptr @_ZNKSt6vectorIN2cv3MatESaIS1_EEixEm(ptr noundef nonnull align 8 dereferenceable(24) %33, i64 noundef 0) #11
  %35 = getelementptr inbounds %"class.cv::Mat", ptr %34, i32 0, i32 3
  %36 = load i32, ptr %35, align 4
  store i32 %36, ptr %7, align 4
  %37 = load ptr, ptr %2, align 8
  %38 = call noundef nonnull align 8 dereferenceable(96) ptr @_ZNKSt6vectorIN2cv3MatESaIS1_EEixEm(ptr noundef nonnull align 8 dereferenceable(24) %37, i64 noundef 0) #11
  %39 = getelementptr inbounds %"class.cv::Mat", ptr %38, i32 0, i32 2
  %40 = load i32, ptr %39, align 8
  store i32 %40, ptr %8, align 4
  %41 = load ptr, ptr %2, align 8
  %42 = call noundef nonnull align 8 dereferenceable(96) ptr @_ZNKSt6vectorIN2cv3MatESaIS1_EEixEm(ptr noundef nonnull align 8 dereferenceable(24) %41, i64 noundef 0) #11
  %43 = call noundef i32 @_ZNK2cv3Mat4typeEv(ptr noundef nonnull align 8 dereferenceable(96) %42)
  store i32 %43, ptr %9, align 4
  store i64 0, ptr %10, align 8
  br label %44

44:                                               ; preds = %103, %32
  %45 = load i64, ptr %10, align 8
  %46 = load ptr, ptr %2, align 8
  %47 = call noundef i64 @_ZNKSt6vectorIN2cv3MatESaIS1_EE4sizeEv(ptr noundef nonnull align 8 dereferenceable(24) %46) #11
  %48 = icmp ult i64 %45, %47
  br i1 %48, label %49, label %106

49:                                               ; preds = %44
  br label %50

50:                                               ; preds = %49
  %51 = load ptr, ptr %2, align 8
  %52 = load i64, ptr %10, align 8
  %53 = call noundef nonnull align 8 dereferenceable(96) ptr @_ZNKSt6vectorIN2cv3MatESaIS1_EEixEm(ptr noundef nonnull align 8 dereferenceable(24) %51, i64 noundef %52) #11
  %54 = getelementptr inbounds %"class.cv::Mat", ptr %53, i32 0, i32 3
  %55 = load i32, ptr %54, align 4
  %56 = load i32, ptr %7, align 4
  %57 = icmp eq i32 %55, %56
  br i1 %57, label %58, label %67

58:                                               ; preds = %50
  %59 = load ptr, ptr %2, align 8
  %60 = load i64, ptr %10, align 8
  %61 = call noundef nonnull align 8 dereferenceable(96) ptr @_ZNKSt6vectorIN2cv3MatESaIS1_EEixEm(ptr noundef nonnull align 8 dereferenceable(24) %59, i64 noundef %60) #11
  %62 = getelementptr inbounds %"class.cv::Mat", ptr %61, i32 0, i32 2
  %63 = load i32, ptr %62, align 8
  %64 = load i32, ptr %8, align 4
  %65 = icmp eq i32 %63, %64
  br i1 %65, label %66, label %67

66:                                               ; preds = %58
  br label %79

67:                                               ; preds = %58, %50
  call void @_ZNSaIcEC1Ev(ptr noundef nonnull align 1 dereferenceable(1) %12) #11
  invoke void @_ZNSt7__cxx1112basic_stringIcSt11char_traitsIcESaIcEEC1EPKcRKS3_(ptr noundef nonnull align 8 dereferenceable(32) %11, ptr noundef @.str.2, ptr noundef nonnull align 1 dereferenceable(1) %12)
          to label %68 unwind label %70

68:                                               ; preds = %67
  invoke void @_ZN2cv5errorEiRKNSt7__cxx1112basic_stringIcSt11char_traitsIcESaIcEEEPKcS9_i(i32 noundef -215, ptr noundef nonnull align 8 dereferenceable(32) %11, ptr noundef @__func__._ZN2cv20checkImageDimensionsERKSt6vectorINS_3MatESaIS1_EE, ptr noundef @.str.1, i32 noundef 57) #12
          to label %69 unwind label %74

69:                                               ; preds = %68
  unreachable

70:                                               ; preds = %67
  %71 = landingpad { ptr, i32 }
          cleanup
  %72 = extractvalue { ptr, i32 } %71, 0
  store ptr %72, ptr %5, align 8
  %73 = extractvalue { ptr, i32 } %71, 1
  store i32 %73, ptr %6, align 4
  br label %78

74:                                               ; preds = %68
  %75 = landingpad { ptr, i32 }
          cleanup
  %76 = extractvalue { ptr, i32 } %75, 0
  store ptr %76, ptr %5, align 8
  %77 = extractvalue { ptr, i32 } %75, 1
  store i32 %77, ptr %6, align 4
  call void @_ZNSt7__cxx1112basic_stringIcSt11char_traitsIcESaIcEED1Ev(ptr noundef nonnull align 8 dereferenceable(32) %11) #11
  br label %78

78:                                               ; preds = %74, %70
  call void @_ZNSaIcED1Ev(ptr noundef nonnull align 1 dereferenceable(1) %12) #11
  br label %107

79:                                               ; preds = %66
  br label %80

80:                                               ; preds = %79
  br label %81

81:                                               ; preds = %80
  %82 = load ptr, ptr %2, align 8
  %83 = load i64, ptr %10, align 8
  %84 = call noundef nonnull align 8 dereferenceable(96) ptr @_ZNKSt6vectorIN2cv3MatESaIS1_EEixEm(ptr noundef nonnull align 8 dereferenceable(24) %82, i64 noundef %83) #11
  %85 = call noundef i32 @_ZNK2cv3Mat4typeEv(ptr noundef nonnull align 8 dereferenceable(96) %84)
  %86 = load i32, ptr %9, align 4
  %87 = icmp eq i32 %85, %86
  br i1 %87, label %88, label %89

88:                                               ; preds = %81
  br label %101

89:                                               ; preds = %81
  call void @_ZNSaIcEC1Ev(ptr noundef nonnull align 1 dereferenceable(1) %14) #11
  invoke void @_ZNSt7__cxx1112basic_stringIcSt11char_traitsIcESaIcEEC1EPKcRKS3_(ptr noundef nonnull align 8 dereferenceable(32) %13, ptr noundef @.str.3, ptr noundef nonnull align 1 dereferenceable(1) %14)
          to label %90 unwind label %92

90:                                               ; preds = %89
  invoke void @_ZN2cv5errorEiRKNSt7__cxx1112basic_stringIcSt11char_traitsIcESaIcEEEPKcS9_i(i32 noundef -215, ptr noundef nonnull align 8 dereferenceable(32) %13, ptr noundef @__func__._ZN2cv20checkImageDimensionsERKSt6vectorINS_3MatESaIS1_EE, ptr noundef @.str.1, i32 noundef 58) #12
          to label %91 unwind label %96

91:                                               ; preds = %90
  unreachable

92:                                               ; preds = %89
  %93 = landingpad { ptr, i32 }
          cleanup
  %94 = extractvalue { ptr, i32 } %93, 0
  store ptr %94, ptr %5, align 8
  %95 = extractvalue { ptr, i32 } %93, 1
  store i32 %95, ptr %6, align 4
  br label %100

96:                                               ; preds = %90
  %97 = landingpad { ptr, i32 }
          cleanup
  %98 = extractvalue { ptr, i32 } %97, 0
  store ptr %98, ptr %5, align 8
  %99 = extractvalue { ptr, i32 } %97, 1
  store i32 %99, ptr %6, align 4
  call void @_ZNSt7__cxx1112basic_stringIcSt11char_traitsIcESaIcEED1Ev(ptr noundef nonnull align 8 dereferenceable(32) %13) #11
  br label %100

100:                                              ; preds = %96, %92
  call void @_ZNSaIcED1Ev(ptr noundef nonnull align 1 dereferenceable(1) %14) #11
  br label %107

101:                                              ; preds = %88
  br label %102

102:                                              ; preds = %101
  br label %103

103:                                              ; preds = %102
  %104 = load i64, ptr %10, align 8
  %105 = add i64 %104, 1
  store i64 %105, ptr %10, align 8
  br label %44, !llvm.loop !4

106:                                              ; preds = %44
  ret void

107:                                              ; preds = %100, %78, %30
  %108 = load ptr, ptr %5, align 8
  %109 = load i32, ptr %6, align 4
  %110 = insertvalue { ptr, i32 } poison, ptr %108, 0
  %111 = insertvalue { ptr, i32 } %110, i32 %109, 1
  resume { ptr, i32 } %111
}