; Function Attrs: mustprogress uwtable
define hidden void @_ZN2cv20checkImageDimensionsERKSt6vectorINS_3MatESaIS1_EE(ptr nocapture noundef nonnull readonly align 8 dereferenceable(24) %0) local_unnamed_addr #0 personality ptr @__gxx_personality_v0 {
  %2 = alloca %"class.std::__cxx11::basic_string", align 8
  %3 = alloca %"class.std::allocator.0", align 1
  %4 = alloca %"class.std::__cxx11::basic_string", align 8
  %5 = alloca %"class.std::allocator.0", align 1
  %6 = alloca %"class.std::__cxx11::basic_string", align 8
  %7 = alloca %"class.std::allocator.0", align 1
  %8 = load ptr, ptr %0, align 8
  %9 = getelementptr inbounds i8, ptr %0, i64 8
  %10 = load ptr, ptr %9, align 8
  %11 = icmp eq ptr %8, %10
  br i1 %11, label %12, label %.lr.ph.preheader

12:                                               ; preds = %1
  call void @_ZNSaIcEC1Ev(ptr noundef nonnull align 1 dereferenceable(1) %3) #12
  invoke void @_ZNSt7__cxx1112basic_stringIcSt11char_traitsIcESaIcEEC1EPKcRKS3_(ptr noundef nonnull align 8 dereferenceable(32) %2, ptr noundef nonnull @.str, ptr noundef nonnull align 1 dereferenceable(1) %3)
          to label %13 unwind label %15

13:                                               ; preds = %12
  invoke void @_ZN2cv5errorEiRKNSt7__cxx1112basic_stringIcSt11char_traitsIcESaIcEEEPKcS9_i(i32 noundef -215, ptr noundef nonnull align 8 dereferenceable(32) %2, ptr noundef nonnull @__func__._ZN2cv20checkImageDimensionsERKSt6vectorINS_3MatESaIS1_EE, ptr noundef nonnull @.str.1, i32 noundef 51) #13
          to label %14 unwind label %17

14:                                               ; preds = %13
  unreachable

15:                                               ; preds = %12
  %16 = landingpad { ptr, i32 }
          cleanup
  br label %57

17:                                               ; preds = %13
  %18 = landingpad { ptr, i32 }
          cleanup
  call void @_ZNSt7__cxx1112basic_stringIcSt11char_traitsIcESaIcEED1Ev(ptr noundef nonnull align 8 dereferenceable(32) %2) #12
  br label %57

.lr.ph.preheader:                                 ; preds = %1
  %19 = getelementptr inbounds i8, ptr %8, i64 12
  %20 = load i32, ptr %19, align 4
  %21 = getelementptr inbounds i8, ptr %8, i64 8
  %22 = load i32, ptr %21, align 8
  %23 = load i32, ptr %8, align 8
  %24 = ptrtoint ptr %10 to i64
  %25 = ptrtoint ptr %8 to i64
  %26 = sub i64 %24, %25
  %27 = sdiv exact i64 %26, 96
  %umax = tail call i64 @llvm.umax.i64(i64 %27, i64 1)
  br label %.lr.ph

28:                                               ; preds = %45
  %29 = add nuw i64 %.028, 1
  %exitcond.not = icmp eq i64 %29, %umax
  br i1 %exitcond.not, label %._crit_edge, label %.lr.ph, !llvm.loop !4

.lr.ph:                                           ; preds = %.lr.ph.preheader, %28
  %.028 = phi i64 [ %29, %28 ], [ 0, %.lr.ph.preheader ]
  %30 = getelementptr inbounds %"class.cv::Mat", ptr %8, i64 %.028
  %31 = getelementptr inbounds i8, ptr %30, i64 12
  %32 = load i32, ptr %31, align 4
  %33 = icmp eq i32 %32, %20
  br i1 %33, label %34, label %38

34:                                               ; preds = %.lr.ph
  %35 = getelementptr inbounds i8, ptr %30, i64 8
  %36 = load i32, ptr %35, align 8
  %37 = icmp eq i32 %36, %22
  br i1 %37, label %45, label %38

38:                                               ; preds = %34, %.lr.ph
  call void @_ZNSaIcEC1Ev(ptr noundef nonnull align 1 dereferenceable(1) %5) #12
  invoke void @_ZNSt7__cxx1112basic_stringIcSt11char_traitsIcESaIcEEC1EPKcRKS3_(ptr noundef nonnull align 8 dereferenceable(32) %4, ptr noundef nonnull @.str.2, ptr noundef nonnull align 1 dereferenceable(1) %5)
          to label %39 unwind label %41

39:                                               ; preds = %38
  invoke void @_ZN2cv5errorEiRKNSt7__cxx1112basic_stringIcSt11char_traitsIcESaIcEEEPKcS9_i(i32 noundef -215, ptr noundef nonnull align 8 dereferenceable(32) %4, ptr noundef nonnull @__func__._ZN2cv20checkImageDimensionsERKSt6vectorINS_3MatESaIS1_EE, ptr noundef nonnull @.str.1, i32 noundef 57) #13
          to label %40 unwind label %43

40:                                               ; preds = %39
  unreachable

41:                                               ; preds = %38
  %42 = landingpad { ptr, i32 }
          cleanup
  br label %57

43:                                               ; preds = %39
  %44 = landingpad { ptr, i32 }
          cleanup
  call void @_ZNSt7__cxx1112basic_stringIcSt11char_traitsIcESaIcEED1Ev(ptr noundef nonnull align 8 dereferenceable(32) %4) #12
  br label %57

45:                                               ; preds = %34
  %46 = load i32, ptr %30, align 8
  %47 = xor i32 %46, %23
  %48 = and i32 %47, 4095
  %49 = icmp eq i32 %48, 0
  br i1 %49, label %28, label %50

50:                                               ; preds = %45
  call void @_ZNSaIcEC1Ev(ptr noundef nonnull align 1 dereferenceable(1) %7) #12
  invoke void @_ZNSt7__cxx1112basic_stringIcSt11char_traitsIcESaIcEEC1EPKcRKS3_(ptr noundef nonnull align 8 dereferenceable(32) %6, ptr noundef nonnull @.str.3, ptr noundef nonnull align 1 dereferenceable(1) %7)
          to label %51 unwind label %53

51:                                               ; preds = %50
  invoke void @_ZN2cv5errorEiRKNSt7__cxx1112basic_stringIcSt11char_traitsIcESaIcEEEPKcS9_i(i32 noundef -215, ptr noundef nonnull align 8 dereferenceable(32) %6, ptr noundef nonnull @__func__._ZN2cv20checkImageDimensionsERKSt6vectorINS_3MatESaIS1_EE, ptr noundef nonnull @.str.1, i32 noundef 58) #13
          to label %52 unwind label %55

52:                                               ; preds = %51
  unreachable

53:                                               ; preds = %50
  %54 = landingpad { ptr, i32 }
          cleanup
  br label %57

55:                                               ; preds = %51
  %56 = landingpad { ptr, i32 }
          cleanup
  call void @_ZNSt7__cxx1112basic_stringIcSt11char_traitsIcESaIcEED1Ev(ptr noundef nonnull align 8 dereferenceable(32) %6) #12
  br label %57

._crit_edge:                                      ; preds = %28
  ret void

57:                                               ; preds = %53, %55, %41, %43, %15, %17
  %.sink = phi ptr [ %3, %17 ], [ %3, %15 ], [ %5, %43 ], [ %5, %41 ], [ %7, %55 ], [ %7, %53 ]
  %.pn25.pn = phi { ptr, i32 } [ %18, %17 ], [ %16, %15 ], [ %44, %43 ], [ %42, %41 ], [ %56, %55 ], [ %54, %53 ]
  call void @_ZNSaIcED1Ev(ptr noundef nonnull align 1 dereferenceable(1) %.sink) #12
  resume { ptr, i32 } %.pn25.pn
}